; Function Attrs: mustprogress nounwind uwtable
define internal noundef nonnull ptr @_ZN12_GLOBAL__N_128CreateScalableErrorAsWarning4callEv() #0 align 2 {
  %1 = tail call noalias noundef nonnull dereferenceable(192) ptr @_Znwm(i64 noundef 192) #9
  tail call void @_ZN4llvm2cl6OptionC2ENS0_18NumOccurrencesFlagENS0_12OptionHiddenE(ptr noundef nonnull align 8 dereferenceable(192) %1, i32 noundef 0, i32 noundef 0)
  %2 = getelementptr inbounds nuw i8, ptr %1, i64 128
  store i8 0, ptr %2, align 8
  %3 = getelementptr inbounds nuw i8, ptr %1, i64 136
  %4 = getelementptr inbounds nuw i8, ptr %1, i64 144
  store i64 0, ptr %4, align 8
  store ptr getelementptr inbounds nuw inrange(-16, 16) (i8, ptr @_ZTVN4llvm2cl11OptionValueIbEE, i64 16), ptr %3, align 8
  store ptr getelementptr inbounds nuw inrange(-16, 88) (i8, ptr @_ZTVN4llvm2cl3optIbLb0ENS0_6parserIbEEEE, i64 16), ptr %1, align 8
  %5 = getelementptr inbounds nuw i8, ptr %1, i64 152
  tail call void @_ZN4llvm2cl12basic_parserIbEC2ERNS0_6OptionE(ptr noundef nonnull align 8 dereferenceable(8) %5, ptr noundef nonnull align 8 dereferenceable(192) %1) #7
  store ptr getelementptr inbounds nuw inrange(-16, 32) (i8, ptr @_ZTVN4llvm2cl6parserIbEE, i64 16), ptr %5, align 8
  %6 = getelementptr inbounds nuw i8, ptr %1, i64 160
  %7 = getelementptr inbounds nuw i8, ptr %1, i64 176
  %8 = getelementptr inbounds nuw i8, ptr %1, i64 184
  tail call void @llvm.memset.p0.i64(ptr noundef nonnull align 8 dereferenceable(32) %6, i8 0, i64 16, i1 false)
  store ptr @_ZNSt17_Function_handlerIFvRKbEN4llvm2cl3optIbLb0ENS4_6parserIbEEEUlS1_E_EE9_M_invokeERKSt9_Any_dataS1_, ptr %8, align 8
  store ptr @_ZNSt17_Function_handlerIFvRKbEN4llvm2cl3optIbLb0ENS4_6parserIbEEEUlS1_E_EE10_M_managerERSt9_Any_dataRKSB_St18_Manager_operation, ptr %7, align 8
  tail call void @_ZN4llvm2cl6Option9setArgStrENS_9StringRefE(ptr noundef nonnull align 8 dereferenceable(192) %1, ptr nonnull align 1 dereferenceable(38) @.str.5, i64 37) #7
  %9 = getelementptr inbounds nuw i8, ptr %1, i64 10
  %10 = load i16, ptr %9, align 2
  %11 = and i16 %10, -97
  %12 = or disjoint i16 %11, 32
  store i16 %12, ptr %9, align 2
  %13 = getelementptr inbounds nuw i8, ptr %1, i64 32
  store ptr @.str.6, ptr %13, align 8
  %.sroa.2.0..sroa_idx.i.i.i.i.i.i.i = getelementptr inbounds nuw i8, ptr %1, i64 40
  store i64 109, ptr %.sroa.2.0..sroa_idx.i.i.i.i.i.i.i, align 8
  tail call void @_ZN4llvm2cl3optIbLb0ENS0_6parserIbEEE4doneEv(ptr noundef nonnull align 8 dereferenceable(192) %1) #7
  ret ptr %1
}